; Function Attrs: mustprogress uwtable
define dso_local void @_ZN24btMultiBodyDynamicsWorld12addMultiBodyEP11btMultiBodyii(ptr noundef nonnull align 8 captures(none) dereferenceable(848) %0, ptr noundef %1, i32 %2, i32 %3) unnamed_addr #0 align 2 {
  %5 = getelementptr inbounds nuw i8, ptr %0, i64 516
  %6 = load i32, ptr %5, align 4, !tbaa !4
  %7 = getelementptr inbounds nuw i8, ptr %0, i64 520
  %8 = load i32, ptr %7, align 8, !tbaa !13
  %9 = icmp eq i32 %6, %8
  br i1 %9, label %10, label %_ZN20btAlignedObjectArrayIP11btMultiBodyE9push_backERKS1_.exit

10:                                               ; preds = %4
  %.not.i.i = icmp eq i32 %6, 0
  %11 = shl nsw i32 %6, 1
  %12 = select i1 %.not.i.i, i32 1, i32 %11
  %13 = icmp slt i32 %6, %12
  br i1 %13, label %14, label %_ZN20btAlignedObjectArrayIP11btMultiBodyE9push_backERKS1_.exit

14:                                               ; preds = %10
  %.not.i.i.i = icmp eq i32 %12, 0
  br i1 %.not.i.i.i, label %_ZN20btAlignedObjectArrayIP11btMultiBodyE8allocateEi.exit.i.i, label %15

15:                                               ; preds = %14
  %16 = sext i32 %12 to i64
  %17 = shl nsw i64 %16, 3
  %18 = tail call noundef ptr @_Z22btAlignedAllocInternalmi(i64 noundef %17, i32 noundef 16)
  %.pre.i = load i32, ptr %5, align 4, !tbaa !4
  br label %_ZN20btAlignedObjectArrayIP11btMultiBodyE8allocateEi.exit.i.i

_ZN20btAlignedObjectArrayIP11btMultiBodyE8allocateEi.exit.i.i: ; preds = %15, %14
  %19 = phi i32 [ %.pre.i, %15 ], [ %6, %14 ]
  %.0.i.i.i = phi ptr [ %18, %15 ], [ null, %14 ]
  %20 = icmp sgt i32 %19, 0
  %21 = getelementptr inbounds nuw i8, ptr %0, i64 528
  %22 = load ptr, ptr %21, align 8, !tbaa !14
  br i1 %20, label %.lr.ph.i.i.i, label %_ZNK20btAlignedObjectArrayIP11btMultiBodyE4copyEiiPS1_.exit.i.i

.lr.ph.i.i.i:                                     ; preds = %_ZN20btAlignedObjectArrayIP11btMultiBodyE8allocateEi.exit.i.i
  %wide.trip.count.i.i.i = zext nneg i32 %19 to i64
  br label %23

23:                                               ; preds = %23, %.lr.ph.i.i.i
  %indvars.iv.i.i.i = phi i64 [ 0, %.lr.ph.i.i.i ], [ %indvars.iv.next.i.i.i, %23 ]
  %24 = getelementptr inbounds nuw ptr, ptr %.0.i.i.i, i64 %indvars.iv.i.i.i
  %25 = getelementptr inbounds nuw ptr, ptr %22, i64 %indvars.iv.i.i.i
  %26 = load ptr, ptr %25, align 8, !tbaa !15
  store ptr %26, ptr %24, align 8, !tbaa !15
  %indvars.iv.next.i.i.i = add nuw nsw i64 %indvars.iv.i.i.i, 1
  %exitcond.not.i.i.i = icmp eq i64 %indvars.iv.next.i.i.i, %wide.trip.count.i.i.i
  br i1 %exitcond.not.i.i.i, label %_ZNK20btAlignedObjectArrayIP11btMultiBodyE4copyEiiPS1_.exit.thread.i.i, label %23, !llvm.loop !17

_ZNK20btAlignedObjectArrayIP11btMultiBodyE4copyEiiPS1_.exit.i.i: ; preds = %_ZN20btAlignedObjectArrayIP11btMultiBodyE8allocateEi.exit.i.i
  %.not.i5.i.i = icmp eq ptr %22, null
  br i1 %.not.i5.i.i, label %_ZN20btAlignedObjectArrayIP11btMultiBodyE10deallocateEv.exit.i.i, label %_ZNK20btAlignedObjectArrayIP11btMultiBodyE4copyEiiPS1_.exit.thread.i.i

_ZNK20btAlignedObjectArrayIP11btMultiBodyE4copyEiiPS1_.exit.thread.i.i: ; preds = %23, %_ZNK20btAlignedObjectArrayIP11btMultiBodyE4copyEiiPS1_.exit.i.i
  %27 = getelementptr inbounds nuw i8, ptr %0, i64 536
  %28 = load i8, ptr %27, align 8, !tbaa !19, !range !20, !noundef !21
  %29 = trunc nuw i8 %28 to i1
  br i1 %29, label %30, label %_ZN20btAlignedObjectArrayIP11btMultiBodyE10deallocateEv.exit.i.i

30:                                               ; preds = %_ZNK20btAlignedObjectArrayIP11btMultiBodyE4copyEiiPS1_.exit.thread.i.i
  tail call void @_Z21btAlignedFreeInternalPv(ptr noundef nonnull %22)
  %.pre2.pre.pre.i = load i32, ptr %5, align 4, !tbaa !4
  br label %_ZN20btAlignedObjectArrayIP11btMultiBodyE10deallocateEv.exit.i.i

_ZN20btAlignedObjectArrayIP11btMultiBodyE10deallocateEv.exit.i.i: ; preds = %30, %_ZNK20btAlignedObjectArrayIP11btMultiBodyE4copyEiiPS1_.exit.thread.i.i, %_ZNK20btAlignedObjectArrayIP11btMultiBodyE4copyEiiPS1_.exit.i.i
  %.pre2.i = phi i32 [ %19, %_ZNK20btAlignedObjectArrayIP11btMultiBodyE4copyEiiPS1_.exit.i.i ], [ %.pre2.pre.pre.i, %30 ], [ %19, %_ZNK20btAlignedObjectArrayIP11btMultiBodyE4copyEiiPS1_.exit.thread.i.i ]
  %31 = getelementptr inbounds nuw i8, ptr %0, i64 536
  store i8 1, ptr %31, align 8, !tbaa !19
  store ptr %.0.i.i.i, ptr %21, align 8, !tbaa !14
  store i32 %12, ptr %7, align 8, !tbaa !13
  br label %_ZN20btAlignedObjectArrayIP11btMultiBodyE9push_backERKS1_.exit

_ZN20btAlignedObjectArrayIP11btMultiBodyE9push_backERKS1_.exit: ; preds = %4, %10, %_ZN20btAlignedObjectArrayIP11btMultiBodyE10deallocateEv.exit.i.i
  %32 = phi i32 [ %.pre2.i, %_ZN20btAlignedObjectArrayIP11btMultiBodyE10deallocateEv.exit.i.i ], [ %6, %10 ], [ %6, %4 ]
  %33 = getelementptr inbounds nuw i8, ptr %0, i64 528
  %34 = load ptr, ptr %33, align 8, !tbaa !14
  %35 = sext i32 %32 to i64
  %36 = getelementptr inbounds ptr, ptr %34, i64 %35
  store ptr %1, ptr %36, align 8, !tbaa !15
  %37 = add nsw i32 %32, 1
  store i32 %37, ptr %5, align 4, !tbaa !4
  ret void
}